; Function Attrs: nounwind sspstrong uwtable
define dso_local void @virtio_del_queue(ptr noundef readonly captures(none) %vdev, i32 noundef %n) local_unnamed_addr #0 {
entry:
  %or.cond = icmp ugt i32 %n, 1023
  br i1 %or.cond, label %if.then, label %if.end

if.then:                                          ; preds = %entry
  tail call void @abort() #24
  unreachable

if.end:                                           ; preds = %entry
  %vq = getelementptr inbounds nuw i8, ptr %vdev, i64 232
  %0 = load ptr, ptr %vq, align 8
  %idxprom = zext nneg i32 %n to i64
  %arrayidx = getelementptr %struct.VirtQueue, ptr %0, i64 %idxprom
  store i32 0, ptr %arrayidx, align 8
  %num_default.i = getelementptr inbounds nuw i8, ptr %arrayidx, i64 4
  store i32 0, ptr %num_default.i, align 4
  %handle_output.i = getelementptr inbounds nuw i8, ptr %arrayidx, i64 88
  store ptr null, ptr %handle_output.i, align 8
  %used_elems.i = getelementptr inbounds nuw i8, ptr %arrayidx, i64 48
  %1 = load ptr, ptr %used_elems.i, align 8
  tail call void @g_free(ptr noundef %1) #23
  store ptr null, ptr %used_elems.i, align 8
  %caches1.i.i = getelementptr inbounds nuw i8, ptr %arrayidx, i64 40
  %2 = load atomic i64, ptr %caches1.i.i monotonic, align 8
  store atomic i64 0, ptr %caches1.i.i release, align 8
  %tobool.not.i.i = icmp eq i64 %2, 0
  br i1 %tobool.not.i.i, label %virtio_delete_queue.exit, label %if.then.i.i

if.then.i.i:                                      ; preds = %if.end
  %3 = inttoptr i64 %2 to ptr
  tail call void @call_rcu1(ptr noundef nonnull %3, ptr noundef nonnull @virtio_free_region_cache) #23
  br label %virtio_delete_queue.exit

virtio_delete_queue.exit:                         ; preds = %if.end, %if.then.i.i
  ret void
}